; ModuleID = '45/2909.c'
source_filename = "45/2909.c"
target datalayout = "e-m:e-p270:32:32-p271:32:32-p272:64:64-i64:64-f80:128-n8:16:32:64-S128"
target triple = "x86_64-pc-linux-gnu"

@.str = private unnamed_addr constant [6 x i8] c"%s %s\00", align 1
@.str.1 = private unnamed_addr constant [3 x i8] c"%d\00", align 1

; Function Attrs: noinline nounwind uwtable
define dso_local i32 @main() #0 {
  %1 = alloca i32, align 4
  %2 = alloca i32, align 4
  %3 = alloca i32, align 4
  %4 = alloca i32, align 4
  %5 = alloca [55 x i8], align 16
  %6 = alloca [55 x i8], align 16
  %7 = alloca [55 x i8], align 16
  store i32 0, i32* %1, align 4
  %8 = getelementptr inbounds [55 x i8], [55 x i8]* %5, i64 0, i64 0
  %9 = getelementptr inbounds [55 x i8], [55 x i8]* %6, i64 0, i64 0
  %10 = call i32 (i8*, ...) @__isoc99_scanf(i8* getelementptr inbounds ([6 x i8], [6 x i8]* @.str, i64 0, i64 0), i8* %8, i8* %9)
  store i32 0, i32* %2, align 4
  br label %11

11:                                               ; preds = %65, %0
  %12 = load i32, i32* %2, align 4
  %13 = sext i32 %12 to i64
  %14 = getelementptr inbounds [55 x i8], [55 x i8]* %6, i64 0, i64 %13
  %15 = load i8, i8* %14, align 1
  %16 = sext i8 %15 to i32
  %17 = icmp ne i32 %16, 0
  br i1 %17, label %18, label %68

18:                                               ; preds = %11
  %19 = load i32, i32* %2, align 4
  %20 = sext i32 %19 to i64
  %21 = getelementptr inbounds [55 x i8], [55 x i8]* %6, i64 0, i64 %20
  %22 = load i8, i8* %21, align 1
  %23 = sext i8 %22 to i32
  %24 = getelementptr inbounds [55 x i8], [55 x i8]* %5, i64 0, i64 0
  %25 = load i8, i8* %24, align 16
  %26 = sext i8 %25 to i32
  %27 = icmp eq i32 %23, %26
  br i1 %27, label %28, label %64

28:                                               ; preds = %18
  store i32 0, i32* %4, align 4
  %29 = load i32, i32* %2, align 4
  store i32 %29, i32* %3, align 4
  br label %30

30:                                               ; preds = %49, %28
  %31 = load i32, i32* %3, align 4
  %32 = sext i32 %31 to i64
  %33 = load i32, i32* %2, align 4
  %34 = sext i32 %33 to i64
  %35 = getelementptr inbounds [55 x i8], [55 x i8]* %5, i64 0, i64 0
  %36 = call i64 @strlen(i8* %35) #3
  %37 = add i64 %34, %36
  %38 = icmp ult i64 %32, %37
  br i1 %38, label %39, label %52

39:                                               ; preds = %30
  %40 = load i32, i32* %3, align 4
  %41 = sext i32 %40 to i64
  %42 = getelementptr inbounds [55 x i8], [55 x i8]* %6, i64 0, i64 %41
  %43 = load i8, i8* %42, align 1
  %44 = load i32, i32* %4, align 4
  %45 = sext i32 %44 to i64
  %46 = getelementptr inbounds [55 x i8], [55 x i8]* %7, i64 0, i64 %45
  store i8 %43, i8* %46, align 1
  %47 = load i32, i32* %4, align 4
  %48 = add nsw i32 %47, 1
  store i32 %48, i32* %4, align 4
  br label %49

49:                                               ; preds = %39
  %50 = load i32, i32* %3, align 4
  %51 = add nsw i32 %50, 1
  store i32 %51, i32* %3, align 4
  br label %30

52:                                               ; preds = %30
  %53 = load i32, i32* %4, align 4
  %54 = sext i32 %53 to i64
  %55 = getelementptr inbounds [55 x i8], [55 x i8]* %7, i64 0, i64 %54
  store i8 0, i8* %55, align 1
  %56 = getelementptr inbounds [55 x i8], [55 x i8]* %5, i64 0, i64 0
  %57 = getelementptr inbounds [55 x i8], [55 x i8]* %7, i64 0, i64 0
  %58 = call i32 @strcmp(i8* %56, i8* %57) #3
  %59 = icmp eq i32 %58, 0
  br i1 %59, label %60, label %63

60:                                               ; preds = %52
  %61 = load i32, i32* %2, align 4
  %62 = call i32 (i8*, ...) @printf(i8* getelementptr inbounds ([3 x i8], [3 x i8]* @.str.1, i64 0, i64 0), i32 %61)
  store i32 0, i32* %1, align 4
  br label %68

63:                                               ; preds = %52
  br label %64

64:                                               ; preds = %63, %18
  br label %65

65:                                               ; preds = %64
  %66 = load i32, i32* %2, align 4
  %67 = add nsw i32 %66, 1
  store i32 %67, i32* %2, align 4
  br label %11

68:                                               ; preds = %60, %11
  %69 = load i32, i32* %1, align 4
  ret i32 %69
}

declare dso_local i32 @__isoc99_scanf(i8*, ...) #1

; Function Attrs: nounwind readonly
declare dso_local i64 @strlen(i8*) #2

; Function Attrs: nounwind readonly
declare dso_local i32 @strcmp(i8*, i8*) #2

declare dso_local i32 @printf(i8*, ...) #1


!llvm.module.flags = !{!0}
!llvm.ident = !{!1}

!0 = !{i32 1, !"wchar_size", i32 4}
!1 = !{!"clang version 10.0.0-4ubuntu1 "}
